target datalayout = "e-m:e-p270:32:32-p271:32:32-p272:64:64-i64:64-i128:128-f80:128-n8:16:32:64-S128"
target triple = "x86_64-pc-linux-gnu"

%struct.Abc_Ntk_t_ = type { i32, i32, ptr, ptr, ptr, ptr, ptr, ptr, ptr, ptr, ptr, ptr, ptr, [11 x i32], i32, i32, i32, i32, ptr, i32, ptr, ptr, i32, i32, i32, double, i32, %struct.Vec_Int_t_, ptr, ptr, ptr, ptr, ptr, float, i32, ptr, ptr, ptr, ptr, ptr, ptr, ptr, ptr, ptr, ptr, ptr, ptr, ptr, ptr, ptr, ptr, ptr, ptr, ptr, ptr, ptr, ptr }
%struct.Vec_Int_t_ = type { i32, i32, ptr }
%struct.Abc_Obj_t_ = type { ptr, ptr, i32, i32, %struct.Vec_Int_t_, %struct.Vec_Int_t_, %union.anon, %union.anon.0 }
%union.anon = type { ptr }
%union.anon.0 = type { ptr }
%struct.Vec_Ptr_t_ = type { i32, i32, ptr }

; Function Attrs: inlinehint nounwind uwtable
define internal void @Vec_PtrGrow(ptr noundef %0, i32 noundef %1) #3 {
  %3 = alloca ptr, align 8
  %4 = alloca i32, align 4
  store ptr %0, ptr %3, align 8, !tbaa !44
  store i32 %1, ptr %4, align 4, !tbaa !8
  %5 = load ptr, ptr %3, align 8, !tbaa !44
  %6 = getelementptr inbounds nuw %struct.Vec_Ptr_t_, ptr %5, i32 0, i32 0
  %7 = load i32, ptr %6, align 8, !tbaa !68
  %8 = load i32, ptr %4, align 4, !tbaa !8
  %9 = icmp sge i32 %7, %8
  br i1 %9, label %10, label %11

10:                                               ; preds = %2
  br label %36

11:                                               ; preds = %2
  %12 = load ptr, ptr %3, align 8, !tbaa !44
  %13 = getelementptr inbounds nuw %struct.Vec_Ptr_t_, ptr %12, i32 0, i32 2
  %14 = load ptr, ptr %13, align 8, !tbaa !61
  %15 = icmp ne ptr %14, null
  br i1 %15, label %16, label %24

16:                                               ; preds = %11
  %17 = load ptr, ptr %3, align 8, !tbaa !44
  %18 = getelementptr inbounds nuw %struct.Vec_Ptr_t_, ptr %17, i32 0, i32 2
  %19 = load ptr, ptr %18, align 8, !tbaa !61
  %20 = load i32, ptr %4, align 4, !tbaa !8
  %21 = sext i32 %20 to i64
  %22 = mul i64 8, %21
  %23 = call ptr @realloc(ptr noundef %19, i64 noundef %22) #9
  br label %29

24:                                               ; preds = %11
  %25 = load i32, ptr %4, align 4, !tbaa !8
  %26 = sext i32 %25 to i64
  %27 = mul i64 8, %26
  %28 = call noalias ptr @malloc(i64 noundef %27) #8
  br label %29

29:                                               ; preds = %24, %16
  %30 = phi ptr [ %23, %16 ], [ %28, %24 ]
  %31 = load ptr, ptr %3, align 8, !tbaa !44
  %32 = getelementptr inbounds nuw %struct.Vec_Ptr_t_, ptr %31, i32 0, i32 2
  store ptr %30, ptr %32, align 8, !tbaa !61
  %33 = load i32, ptr %4, align 4, !tbaa !8
  %34 = load ptr, ptr %3, align 8, !tbaa !44
  %35 = getelementptr inbounds nuw %struct.Vec_Ptr_t_, ptr %34, i32 0, i32 0
  store i32 %33, ptr %35, align 8, !tbaa !68
  br label %36

36:                                               ; preds = %29, %10
  ret void
}

; Function Attrs: inlinehint nounwind uwtable
define internal i32 @Abc_ObjFaninC1(ptr noundef %0) #3 {
  %2 = alloca ptr, align 8
  store ptr %0, ptr %2, align 8, !tbaa !27
  %3 = load ptr, ptr %2, align 8, !tbaa !27
  %4 = getelementptr inbounds nuw %struct.Abc_Obj_t_, ptr %3, i32 0, i32 3
  %5 = load i32, ptr %4, align 4
  %6 = lshr i32 %5, 11
  %7 = and i32 %6, 1
  ret i32 %7
}

; Function Attrs: inlinehint nounwind uwtable
define internal i32 @Abc_ObjFaninC0(ptr noundef %0) #3 {
  %2 = alloca ptr, align 8
  store ptr %0, ptr %2, align 8, !tbaa !27
  %3 = load ptr, ptr %2, align 8, !tbaa !27
  %4 = getelementptr inbounds nuw %struct.Abc_Obj_t_, ptr %3, i32 0, i32 3
  %5 = load i32, ptr %4, align 4
  %6 = lshr i32 %5, 10
  %7 = and i32 %6, 1
  ret i32 %7
}

; Function Attrs: inlinehint nounwind uwtable
define internal ptr @Abc_ObjFanin(ptr noundef %0, i32 noundef %1) #3 {
  %3 = alloca ptr, align 8
  %4 = alloca i32, align 4
  store ptr %0, ptr %3, align 8, !tbaa !27
  store i32 %1, ptr %4, align 4, !tbaa !8
  %5 = load ptr, ptr %3, align 8, !tbaa !27
  %6 = getelementptr inbounds nuw %struct.Abc_Obj_t_, ptr %5, i32 0, i32 0
  %7 = load ptr, ptr %6, align 8, !tbaa !63
  %8 = getelementptr inbounds nuw %struct.Abc_Ntk_t_, ptr %7, i32 0, i32 5
  %9 = load ptr, ptr %8, align 8, !tbaa !26
  %10 = getelementptr inbounds nuw %struct.Vec_Ptr_t_, ptr %9, i32 0, i32 2
  %11 = load ptr, ptr %10, align 8, !tbaa !61
  %12 = load ptr, ptr %3, align 8, !tbaa !27
  %13 = getelementptr inbounds nuw %struct.Abc_Obj_t_, ptr %12, i32 0, i32 4
  %14 = getelementptr inbounds nuw %struct.Vec_Int_t_, ptr %13, i32 0, i32 2
  %15 = load ptr, ptr %14, align 8, !tbaa !64
  %16 = load i32, ptr %4, align 4, !tbaa !8
  %17 = sext i32 %16 to i64
  %18 = getelementptr inbounds i32, ptr %15, i64 %17
  %19 = load i32, ptr %18, align 4, !tbaa !8
  %20 = sext i32 %19 to i64
  %21 = getelementptr inbounds ptr, ptr %11, i64 %20
  %22 = load ptr, ptr %21, align 8, !tbaa !60
  ret ptr %22
}

; Function Attrs: inlinehint nounwind uwtable
define internal void @Vec_PtrPush(ptr noundef %0, ptr noundef %1) #3 {
  %3 = alloca ptr, align 8
  %4 = alloca ptr, align 8
  store ptr %0, ptr %3, align 8, !tbaa !44
  store ptr %1, ptr %4, align 8, !tbaa !60
  %5 = load ptr, ptr %3, align 8, !tbaa !44
  %6 = getelementptr inbounds nuw %struct.Vec_Ptr_t_, ptr %5, i32 0, i32 1
  %7 = load i32, ptr %6, align 4, !tbaa !58
  %8 = load ptr, ptr %3, align 8, !tbaa !44
  %9 = getelementptr inbounds nuw %struct.Vec_Ptr_t_, ptr %8, i32 0, i32 0
  %10 = load i32, ptr %9, align 8, !tbaa !68
  %11 = icmp eq i32 %7, %10
  br i1 %11, label %12, label %26

12:                                               ; preds = %2
  %13 = load ptr, ptr %3, align 8, !tbaa !44
  %14 = getelementptr inbounds nuw %struct.Vec_Ptr_t_, ptr %13, i32 0, i32 0
  %15 = load i32, ptr %14, align 8, !tbaa !68
  %16 = icmp slt i32 %15, 16
  br i1 %16, label %17, label %19

17:                                               ; preds = %12
  %18 = load ptr, ptr %3, align 8, !tbaa !44
  call void @Vec_PtrGrow(ptr noundef %18, i32 noundef 16)
  br label %25

19:                                               ; preds = %12
  %20 = load ptr, ptr %3, align 8, !tbaa !44
  %21 = load ptr, ptr %3, align 8, !tbaa !44
  %22 = getelementptr inbounds nuw %struct.Vec_Ptr_t_, ptr %21, i32 0, i32 0
  %23 = load i32, ptr %22, align 8, !tbaa !68
  %24 = mul nsw i32 2, %23
  call void @Vec_PtrGrow(ptr noundef %20, i32 noundef %24)
  br label %25

25:                                               ; preds = %19, %17
  br label %26

26:                                               ; preds = %25, %2
  %27 = load ptr, ptr %4, align 8, !tbaa !60
  %28 = load ptr, ptr %3, align 8, !tbaa !44
  %29 = getelementptr inbounds nuw %struct.Vec_Ptr_t_, ptr %28, i32 0, i32 2
  %30 = load ptr, ptr %29, align 8, !tbaa !61
  %31 = load ptr, ptr %3, align 8, !tbaa !44
  %32 = getelementptr inbounds nuw %struct.Vec_Ptr_t_, ptr %31, i32 0, i32 1
  %33 = load i32, ptr %32, align 4, !tbaa !58
  %34 = add nsw i32 %33, 1
  store i32 %34, ptr %32, align 4, !tbaa !58
  %35 = sext i32 %33 to i64
  %36 = getelementptr inbounds ptr, ptr %30, i64 %35
  store ptr %27, ptr %36, align 8, !tbaa !60
  ret void
}

; Function Attrs: nounwind uwtable
define internal ptr @Abc_NtkMultiDeriveBdd_rec(ptr noundef %0, ptr noundef %1, ptr noundef %2) #0 {
  %4 = alloca ptr, align 8
  %5 = alloca ptr, align 8
  %6 = alloca ptr, align 8
  %7 = alloca ptr, align 8
  %8 = alloca ptr, align 8
  %9 = alloca ptr, align 8
  %10 = alloca ptr, align 8
  %11 = alloca i32, align 4
  store ptr %0, ptr %5, align 8, !tbaa !69
  store ptr %1, ptr %6, align 8, !tbaa !27
  store ptr %2, ptr %7, align 8, !tbaa !44
  call void @llvm.lifetime.start.p0(i64 8, ptr %8) #7
  call void @llvm.lifetime.start.p0(i64 8, ptr %9) #7
  call void @llvm.lifetime.start.p0(i64 8, ptr %10) #7
  %12 = load ptr, ptr %6, align 8, !tbaa !27
  %13 = getelementptr inbounds nuw %struct.Abc_Obj_t_, ptr %12, i32 0, i32 3
  %14 = load i32, ptr %13, align 4
  %15 = lshr i32 %14, 6
  %16 = and i32 %15, 1
  %17 = icmp ne i32 %16, 0
  br i1 %17, label %18, label %22

18:                                               ; preds = %3
  %19 = load ptr, ptr %6, align 8, !tbaa !27
  %20 = getelementptr inbounds nuw %struct.Abc_Obj_t_, ptr %19, i32 0, i32 6
  %21 = load ptr, ptr %20, align 8, !tbaa !51
  store ptr %21, ptr %4, align 8
  store i32 1, ptr %11, align 4
  br label %69

22:                                               ; preds = %3
  %23 = load ptr, ptr %6, align 8, !tbaa !27
  %24 = getelementptr inbounds nuw %struct.Abc_Obj_t_, ptr %23, i32 0, i32 3
  %25 = load i32, ptr %24, align 4
  %26 = and i32 %25, -65
  %27 = or i32 %26, 64
  store i32 %27, ptr %24, align 4
  %28 = load ptr, ptr %7, align 8, !tbaa !44
  %29 = load ptr, ptr %6, align 8, !tbaa !27
  call void @Vec_PtrPush(ptr noundef %28, ptr noundef %29)
  %30 = load ptr, ptr %5, align 8, !tbaa !69
  %31 = load ptr, ptr %6, align 8, !tbaa !27
  %32 = call ptr @Abc_ObjFanin(ptr noundef %31, i32 noundef 0)
  %33 = load ptr, ptr %7, align 8, !tbaa !44
  %34 = call ptr @Abc_NtkMultiDeriveBdd_rec(ptr noundef %30, ptr noundef %32, ptr noundef %33)
  store ptr %34, ptr %9, align 8, !tbaa !72
  %35 = load ptr, ptr %9, align 8, !tbaa !72
  call void @Cudd_Ref(ptr noundef %35)
  %36 = load ptr, ptr %5, align 8, !tbaa !69
  %37 = load ptr, ptr %6, align 8, !tbaa !27
  %38 = call ptr @Abc_ObjFanin(ptr noundef %37, i32 noundef 1)
  %39 = load ptr, ptr %7, align 8, !tbaa !44
  %40 = call ptr @Abc_NtkMultiDeriveBdd_rec(ptr noundef %36, ptr noundef %38, ptr noundef %39)
  store ptr %40, ptr %10, align 8, !tbaa !72
  %41 = load ptr, ptr %10, align 8, !tbaa !72
  call void @Cudd_Ref(ptr noundef %41)
  %42 = load ptr, ptr %9, align 8, !tbaa !72
  %43 = ptrtoint ptr %42 to i64
  %44 = load ptr, ptr %6, align 8, !tbaa !27
  %45 = call i32 @Abc_ObjFaninC0(ptr noundef %44)
  %46 = sext i32 %45 to i64
  %47 = xor i64 %43, %46
  %48 = inttoptr i64 %47 to ptr
  store ptr %48, ptr %9, align 8, !tbaa !72
  %49 = load ptr, ptr %10, align 8, !tbaa !72
  %50 = ptrtoint ptr %49 to i64
  %51 = load ptr, ptr %6, align 8, !tbaa !27
  %52 = call i32 @Abc_ObjFaninC1(ptr noundef %51)
  %53 = sext i32 %52 to i64
  %54 = xor i64 %50, %53
  %55 = inttoptr i64 %54 to ptr
  store ptr %55, ptr %10, align 8, !tbaa !72
  %56 = load ptr, ptr %5, align 8, !tbaa !69
  %57 = load ptr, ptr %9, align 8, !tbaa !72
  %58 = load ptr, ptr %10, align 8, !tbaa !72
  %59 = call ptr @Cudd_bddAnd(ptr noundef %56, ptr noundef %57, ptr noundef %58)
  store ptr %59, ptr %8, align 8, !tbaa !72
  %60 = load ptr, ptr %8, align 8, !tbaa !72
  call void @Cudd_Ref(ptr noundef %60)
  %61 = load ptr, ptr %5, align 8, !tbaa !69
  %62 = load ptr, ptr %9, align 8, !tbaa !72
  call void @Cudd_RecursiveDeref(ptr noundef %61, ptr noundef %62)
  %63 = load ptr, ptr %5, align 8, !tbaa !69
  %64 = load ptr, ptr %10, align 8, !tbaa !72
  call void @Cudd_RecursiveDeref(ptr noundef %63, ptr noundef %64)
  %65 = load ptr, ptr %8, align 8, !tbaa !72
  %66 = load ptr, ptr %6, align 8, !tbaa !27
  %67 = getelementptr inbounds nuw %struct.Abc_Obj_t_, ptr %66, i32 0, i32 6
  store ptr %65, ptr %67, align 8, !tbaa !51
  %68 = load ptr, ptr %8, align 8, !tbaa !72
  store ptr %68, ptr %4, align 8
  store i32 1, ptr %11, align 4
  br label %69

69:                                               ; preds = %22, %18
  call void @llvm.lifetime.end.p0(i64 8, ptr %10) #7
  call void @llvm.lifetime.end.p0(i64 8, ptr %9) #7
  call void @llvm.lifetime.end.p0(i64 8, ptr %8) #7
  %70 = load ptr, ptr %4, align 8
  ret ptr %70
}