; Function Attrs: nounwind uwtable
define internal fastcc ptr @Abc_NtkMultiDeriveBdd_rec(ptr noundef %0, ptr noundef %1, ptr noundef %2) unnamed_addr #0 {
  %4 = getelementptr inbounds nuw i8, ptr %1, i64 20
  %5 = load i32, ptr %4, align 4
  %6 = and i32 %5, 64
  %.not = icmp eq i32 %6, 0
  br i1 %.not, label %9, label %common.ret

common.ret:                                       ; preds = %3
  %7 = getelementptr inbounds nuw i8, ptr %1, i64 56
  %8 = load ptr, ptr %7, align 8, !tbaa !45
  br label %common.ret34

9:                                                ; preds = %3
  %10 = or disjoint i32 %5, 64
  store i32 %10, ptr %4, align 4
  %11 = getelementptr inbounds nuw i8, ptr %2, i64 4
  %12 = load i32, ptr %11, align 4, !tbaa !24
  %13 = load i32, ptr %2, align 8, !tbaa !51
  %14 = icmp eq i32 %12, %13
  br i1 %14, label %15, label %.Vec_PtrGrow.exit11_crit_edge.i

.Vec_PtrGrow.exit11_crit_edge.i:                  ; preds = %9
  %.phi.trans.insert.i = getelementptr inbounds nuw i8, ptr %2, i64 8
  %.pre.i = load ptr, ptr %.phi.trans.insert.i, align 8, !tbaa !27
  br label %Vec_PtrPush.exit

15:                                               ; preds = %9
  %16 = icmp slt i32 %12, 16
  br i1 %16, label %17, label %25

17:                                               ; preds = %15
  %18 = getelementptr inbounds nuw i8, ptr %2, i64 8
  %19 = load ptr, ptr %18, align 8, !tbaa !27
  %.not9.i.i = icmp eq ptr %19, null
  br i1 %.not9.i.i, label %22, label %20

20:                                               ; preds = %17
  %21 = tail call dereferenceable_or_null(128) ptr @realloc(ptr noundef nonnull %19, i64 noundef 128) #8
  br label %Vec_PtrGrow.exit.i

22:                                               ; preds = %17
  %23 = tail call noalias dereferenceable_or_null(128) ptr @malloc(i64 noundef 128) #7
  br label %Vec_PtrGrow.exit.i

Vec_PtrGrow.exit.i:                               ; preds = %22, %20
  %24 = phi ptr [ %21, %20 ], [ %23, %22 ]
  store ptr %24, ptr %18, align 8, !tbaa !27
  store i32 16, ptr %2, align 8, !tbaa !51
  br label %Vec_PtrPush.exit

25:                                               ; preds = %15
  %26 = shl nuw nsw i32 %12, 1
  %27 = getelementptr inbounds nuw i8, ptr %2, i64 8
  %28 = load ptr, ptr %27, align 8, !tbaa !27
  %.not9.i10.i = icmp eq ptr %28, null
  %29 = zext nneg i32 %26 to i64
  %30 = shl nuw nsw i64 %29, 3
  br i1 %.not9.i10.i, label %33, label %31

31:                                               ; preds = %25
  %32 = tail call ptr @realloc(ptr noundef nonnull %28, i64 noundef %30) #8
  br label %35

33:                                               ; preds = %25
  %34 = tail call noalias ptr @malloc(i64 noundef %30) #7
  br label %35

35:                                               ; preds = %33, %31
  %36 = phi ptr [ %32, %31 ], [ %34, %33 ]
  store ptr %36, ptr %27, align 8, !tbaa !27
  store i32 %26, ptr %2, align 8, !tbaa !51
  br label %Vec_PtrPush.exit

common.ret34:                                     ; preds = %Vec_PtrPush.exit, %common.ret
  %common.ret34.op = phi ptr [ %8, %common.ret ], [ %70, %Vec_PtrPush.exit ]
  ret ptr %common.ret34.op

Vec_PtrPush.exit:                                 ; preds = %.Vec_PtrGrow.exit11_crit_edge.i, %Vec_PtrGrow.exit.i, %35
  %37 = phi ptr [ %.pre.i, %.Vec_PtrGrow.exit11_crit_edge.i ], [ %36, %35 ], [ %24, %Vec_PtrGrow.exit.i ]
  %38 = load i32, ptr %11, align 4, !tbaa !24
  %39 = add nsw i32 %38, 1
  store i32 %39, ptr %11, align 4, !tbaa !24
  %40 = sext i32 %38 to i64
  %41 = getelementptr inbounds ptr, ptr %37, i64 %40
  store ptr %1, ptr %41, align 8, !tbaa !28
  %.val32 = load ptr, ptr %1, align 8, !tbaa !32
  %42 = getelementptr i8, ptr %1, i64 32
  %.val33 = load ptr, ptr %42, align 8, !tbaa !33
  %43 = getelementptr i8, ptr %.val32, i64 32
  %.val32.val = load ptr, ptr %43, align 8, !tbaa !3
  %44 = getelementptr i8, ptr %.val32.val, i64 8
  %.val32.val.val = load ptr, ptr %44, align 8, !tbaa !27
  %45 = load i32, ptr %.val33, align 4, !tbaa !34
  %46 = sext i32 %45 to i64
  %47 = getelementptr inbounds ptr, ptr %.val32.val.val, i64 %46
  %48 = load ptr, ptr %47, align 8, !tbaa !28
  %49 = tail call fastcc ptr @Abc_NtkMultiDeriveBdd_rec(ptr noundef %0, ptr noundef %48, ptr noundef nonnull %2)
  tail call void @Cudd_Ref(ptr noundef %49) #6
  %.val30 = load ptr, ptr %1, align 8, !tbaa !32
  %.val31 = load ptr, ptr %42, align 8, !tbaa !33
  %50 = getelementptr i8, ptr %.val30, i64 32
  %.val30.val = load ptr, ptr %50, align 8, !tbaa !3
  %51 = getelementptr i8, ptr %.val30.val, i64 8
  %.val30.val.val = load ptr, ptr %51, align 8, !tbaa !27
  %52 = getelementptr inbounds nuw i8, ptr %.val31, i64 4
  %53 = load i32, ptr %52, align 4, !tbaa !34
  %54 = sext i32 %53 to i64
  %55 = getelementptr inbounds ptr, ptr %.val30.val.val, i64 %54
  %56 = load ptr, ptr %55, align 8, !tbaa !28
  %57 = tail call fastcc ptr @Abc_NtkMultiDeriveBdd_rec(ptr noundef %0, ptr noundef %56, ptr noundef nonnull %2)
  tail call void @Cudd_Ref(ptr noundef %57) #6
  %58 = ptrtoint ptr %49 to i64
  %.val = load i32, ptr %4, align 4
  %59 = lshr i32 %.val, 10
  %60 = and i32 %59, 1
  %61 = zext nneg i32 %60 to i64
  %62 = xor i64 %61, %58
  %63 = inttoptr i64 %62 to ptr
  %64 = ptrtoint ptr %57 to i64
  %65 = lshr i32 %.val, 11
  %66 = and i32 %65, 1
  %67 = zext nneg i32 %66 to i64
  %68 = xor i64 %67, %64
  %69 = inttoptr i64 %68 to ptr
  %70 = tail call ptr @Cudd_bddAnd(ptr noundef %0, ptr noundef %63, ptr noundef %69) #6
  tail call void @Cudd_Ref(ptr noundef %70) #6
  tail call void @Cudd_RecursiveDeref(ptr noundef %0, ptr noundef %63) #6
  tail call void @Cudd_RecursiveDeref(ptr noundef %0, ptr noundef %69) #6
  %71 = getelementptr inbounds nuw i8, ptr %1, i64 56
  store ptr %70, ptr %71, align 8, !tbaa !45
  br label %common.ret34
}